target datalayout = "e-m:e-p270:32:32-p271:32:32-p272:64:64-i64:64-i128:128-f80:128-n8:16:32:64-S128"
target triple = "x86_64-pc-linux-gnu"

%struct.AVChannelLayout = type { i32, i32, %union.anon.1, ptr }
%union.anon.1 = type { i64 }
%struct.AVRational = type { i32, i32 }
%struct.FillBordersContext = type { ptr, i32, i32, i32, i32, i32, i32, i32, [4 x %struct.Borders], [4 x i32], [4 x i32], [4 x i8], [4 x i8], [4 x i8], ptr }
%struct.Borders = type { i32, i32, i32, i32 }
%struct.AVFrame = type { [8 x ptr], [8 x i32], ptr, i32, i32, i32, i32, i32, %struct.AVRational, i64, i64, %struct.AVRational, i32, ptr, i32, i32, [8 x ptr], ptr, i32, ptr, i32, i32, i32, i32, i32, i32, i32, i64, ptr, i32, ptr, ptr, i64, i64, i64, i64, ptr, %struct.AVChannelLayout, i64 }

; Function Attrs: nounwind uwtable
define internal void @smear_borders16(ptr noundef %0, ptr noundef %1) #0 {
  %3 = alloca ptr, align 8
  %4 = alloca ptr, align 8
  %5 = alloca i32, align 4
  %6 = alloca i32, align 4
  %7 = alloca i32, align 4
  %8 = alloca ptr, align 8
  %9 = alloca i64, align 8
  store ptr %0, ptr %3, align 8, !tbaa !37
  store ptr %1, ptr %4, align 8, !tbaa !26
  call void @llvm.lifetime.start.p0(i64 4, ptr %5) #8
  call void @llvm.lifetime.start.p0(i64 4, ptr %6) #8
  call void @llvm.lifetime.start.p0(i64 4, ptr %7) #8
  store i32 0, ptr %5, align 4, !tbaa !11
  br label %10

10:                                               ; preds = %270, %2
  %11 = load i32, ptr %5, align 4, !tbaa !11
  %12 = load ptr, ptr %3, align 8, !tbaa !37
  %13 = getelementptr inbounds nuw %struct.FillBordersContext, ptr %12, i32 0, i32 6
  %14 = load i32, ptr %13, align 4, !tbaa !48
  %15 = icmp slt i32 %11, %14
  br i1 %15, label %16, label %273

16:                                               ; preds = %10
  call void @llvm.lifetime.start.p0(i64 8, ptr %8) #8
  %17 = load ptr, ptr %4, align 8, !tbaa !26
  %18 = getelementptr inbounds nuw %struct.AVFrame, ptr %17, i32 0, i32 0
  %19 = load i32, ptr %5, align 4, !tbaa !11
  %20 = sext i32 %19 to i64
  %21 = getelementptr inbounds [8 x ptr], ptr %18, i64 0, i64 %20
  %22 = load ptr, ptr %21, align 8, !tbaa !9
  store ptr %22, ptr %8, align 8, !tbaa !75
  call void @llvm.lifetime.start.p0(i64 8, ptr %9) #8
  %23 = load ptr, ptr %4, align 8, !tbaa !26
  %24 = getelementptr inbounds nuw %struct.AVFrame, ptr %23, i32 0, i32 1
  %25 = load i32, ptr %5, align 4, !tbaa !11
  %26 = sext i32 %25 to i64
  %27 = getelementptr inbounds [8 x i32], ptr %24, i64 0, i64 %26
  %28 = load i32, ptr %27, align 4, !tbaa !11
  %29 = sdiv i32 %28, 2
  %30 = sext i32 %29 to i64
  store i64 %30, ptr %9, align 8, !tbaa !70
  %31 = load ptr, ptr %3, align 8, !tbaa !37
  %32 = getelementptr inbounds nuw %struct.FillBordersContext, ptr %31, i32 0, i32 8
  %33 = load i32, ptr %5, align 4, !tbaa !11
  %34 = sext i32 %33 to i64
  %35 = getelementptr inbounds [4 x %struct.Borders], ptr %32, i64 0, i64 %34
  %36 = getelementptr inbounds nuw %struct.Borders, ptr %35, i32 0, i32 2
  %37 = load i32, ptr %36, align 4, !tbaa !63
  store i32 %37, ptr %6, align 4, !tbaa !11
  br label %38

38:                                               ; preds = %163, %16
  %39 = load i32, ptr %6, align 4, !tbaa !11
  %40 = load ptr, ptr %3, align 8, !tbaa !37
  %41 = getelementptr inbounds nuw %struct.FillBordersContext, ptr %40, i32 0, i32 10
  %42 = load i32, ptr %5, align 4, !tbaa !11
  %43 = sext i32 %42 to i64
  %44 = getelementptr inbounds [4 x i32], ptr %41, i64 0, i64 %43
  %45 = load i32, ptr %44, align 4, !tbaa !11
  %46 = load ptr, ptr %3, align 8, !tbaa !37
  %47 = getelementptr inbounds nuw %struct.FillBordersContext, ptr %46, i32 0, i32 8
  %48 = load i32, ptr %5, align 4, !tbaa !11
  %49 = sext i32 %48 to i64
  %50 = getelementptr inbounds [4 x %struct.Borders], ptr %47, i64 0, i64 %49
  %51 = getelementptr inbounds nuw %struct.Borders, ptr %50, i32 0, i32 3
  %52 = load i32, ptr %51, align 4, !tbaa !64
  %53 = sub nsw i32 %45, %52
  %54 = icmp slt i32 %39, %53
  br i1 %54, label %55, label %166

55:                                               ; preds = %38
  store i32 0, ptr %7, align 4, !tbaa !11
  br label %56

56:                                               ; preds = %92, %55
  %57 = load i32, ptr %7, align 4, !tbaa !11
  %58 = load ptr, ptr %3, align 8, !tbaa !37
  %59 = getelementptr inbounds nuw %struct.FillBordersContext, ptr %58, i32 0, i32 8
  %60 = load i32, ptr %5, align 4, !tbaa !11
  %61 = sext i32 %60 to i64
  %62 = getelementptr inbounds [4 x %struct.Borders], ptr %59, i64 0, i64 %61
  %63 = getelementptr inbounds nuw %struct.Borders, ptr %62, i32 0, i32 0
  %64 = load i32, ptr %63, align 4, !tbaa !60
  %65 = icmp slt i32 %57, %64
  br i1 %65, label %66, label %95

66:                                               ; preds = %56
  %67 = load ptr, ptr %8, align 8, !tbaa !75
  %68 = load i32, ptr %6, align 4, !tbaa !11
  %69 = sext i32 %68 to i64
  %70 = load i64, ptr %9, align 8, !tbaa !70
  %71 = mul nsw i64 %69, %70
  %72 = getelementptr inbounds i16, ptr %67, i64 %71
  %73 = load ptr, ptr %3, align 8, !tbaa !37
  %74 = getelementptr inbounds nuw %struct.FillBordersContext, ptr %73, i32 0, i32 8
  %75 = load i32, ptr %5, align 4, !tbaa !11
  %76 = sext i32 %75 to i64
  %77 = getelementptr inbounds [4 x %struct.Borders], ptr %74, i64 0, i64 %76
  %78 = getelementptr inbounds nuw %struct.Borders, ptr %77, i32 0, i32 0
  %79 = load i32, ptr %78, align 4, !tbaa !60
  %80 = sext i32 %79 to i64
  %81 = getelementptr inbounds i16, ptr %72, i64 %80
  %82 = load i16, ptr %81, align 2, !tbaa !77
  %83 = load ptr, ptr %8, align 8, !tbaa !75
  %84 = load i32, ptr %6, align 4, !tbaa !11
  %85 = sext i32 %84 to i64
  %86 = load i64, ptr %9, align 8, !tbaa !70
  %87 = mul nsw i64 %85, %86
  %88 = load i32, ptr %7, align 4, !tbaa !11
  %89 = sext i32 %88 to i64
  %90 = add nsw i64 %87, %89
  %91 = getelementptr inbounds i16, ptr %83, i64 %90
  store i16 %82, ptr %91, align 2, !tbaa !77
  br label %92

92:                                               ; preds = %66
  %93 = load i32, ptr %7, align 4, !tbaa !11
  %94 = add nsw i32 %93, 1
  store i32 %94, ptr %7, align 4, !tbaa !11
  br label %56, !llvm.loop !79

95:                                               ; preds = %56
  store i32 0, ptr %7, align 4, !tbaa !11
  br label %96

96:                                               ; preds = %159, %95
  %97 = load i32, ptr %7, align 4, !tbaa !11
  %98 = load ptr, ptr %3, align 8, !tbaa !37
  %99 = getelementptr inbounds nuw %struct.FillBordersContext, ptr %98, i32 0, i32 8
  %100 = load i32, ptr %5, align 4, !tbaa !11
  %101 = sext i32 %100 to i64
  %102 = getelementptr inbounds [4 x %struct.Borders], ptr %99, i64 0, i64 %101
  %103 = getelementptr inbounds nuw %struct.Borders, ptr %102, i32 0, i32 1
  %104 = load i32, ptr %103, align 4, !tbaa !62
  %105 = icmp slt i32 %97, %104
  br i1 %105, label %106, label %162

106:                                              ; preds = %96
  %107 = load ptr, ptr %8, align 8, !tbaa !75
  %108 = load i32, ptr %6, align 4, !tbaa !11
  %109 = sext i32 %108 to i64
  %110 = load i64, ptr %9, align 8, !tbaa !70
  %111 = mul nsw i64 %109, %110
  %112 = getelementptr inbounds i16, ptr %107, i64 %111
  %113 = load ptr, ptr %3, align 8, !tbaa !37
  %114 = getelementptr inbounds nuw %struct.FillBordersContext, ptr %113, i32 0, i32 9
  %115 = load i32, ptr %5, align 4, !tbaa !11
  %116 = sext i32 %115 to i64
  %117 = getelementptr inbounds [4 x i32], ptr %114, i64 0, i64 %116
  %118 = load i32, ptr %117, align 4, !tbaa !11
  %119 = sext i32 %118 to i64
  %120 = getelementptr inbounds i16, ptr %112, i64 %119
  %121 = load ptr, ptr %3, align 8, !tbaa !37
  %122 = getelementptr inbounds nuw %struct.FillBordersContext, ptr %121, i32 0, i32 8
  %123 = load i32, ptr %5, align 4, !tbaa !11
  %124 = sext i32 %123 to i64
  %125 = getelementptr inbounds [4 x %struct.Borders], ptr %122, i64 0, i64 %124
  %126 = getelementptr inbounds nuw %struct.Borders, ptr %125, i32 0, i32 1
  %127 = load i32, ptr %126, align 4, !tbaa !62
  %128 = sext i32 %127 to i64
  %129 = sub i64 0, %128
  %130 = getelementptr inbounds i16, ptr %120, i64 %129
  %131 = getelementptr inbounds i16, ptr %130, i64 -1
  %132 = load i16, ptr %131, align 2, !tbaa !77
  %133 = load ptr, ptr %8, align 8, !tbaa !75
  %134 = load i32, ptr %6, align 4, !tbaa !11
  %135 = sext i32 %134 to i64
  %136 = load i64, ptr %9, align 8, !tbaa !70
  %137 = mul nsw i64 %135, %136
  %138 = load ptr, ptr %3, align 8, !tbaa !37
  %139 = getelementptr inbounds nuw %struct.FillBordersContext, ptr %138, i32 0, i32 9
  %140 = load i32, ptr %5, align 4, !tbaa !11
  %141 = sext i32 %140 to i64
  %142 = getelementptr inbounds [4 x i32], ptr %139, i64 0, i64 %141
  %143 = load i32, ptr %142, align 4, !tbaa !11
  %144 = sext i32 %143 to i64
  %145 = add nsw i64 %137, %144
  %146 = load ptr, ptr %3, align 8, !tbaa !37
  %147 = getelementptr inbounds nuw %struct.FillBordersContext, ptr %146, i32 0, i32 8
  %148 = load i32, ptr %5, align 4, !tbaa !11
  %149 = sext i32 %148 to i64
  %150 = getelementptr inbounds [4 x %struct.Borders], ptr %147, i64 0, i64 %149
  %151 = getelementptr inbounds nuw %struct.Borders, ptr %150, i32 0, i32 1
  %152 = load i32, ptr %151, align 4, !tbaa !62
  %153 = sext i32 %152 to i64
  %154 = sub nsw i64 %145, %153
  %155 = load i32, ptr %7, align 4, !tbaa !11
  %156 = sext i32 %155 to i64
  %157 = add nsw i64 %154, %156
  %158 = getelementptr inbounds i16, ptr %133, i64 %157
  store i16 %132, ptr %158, align 2, !tbaa !77
  br label %159

159:                                              ; preds = %106
  %160 = load i32, ptr %7, align 4, !tbaa !11
  %161 = add nsw i32 %160, 1
  store i32 %161, ptr %7, align 4, !tbaa !11
  br label %96, !llvm.loop !80

162:                                              ; preds = %96
  br label %163

163:                                              ; preds = %162
  %164 = load i32, ptr %6, align 4, !tbaa !11
  %165 = add nsw i32 %164, 1
  store i32 %165, ptr %6, align 4, !tbaa !11
  br label %38, !llvm.loop !81

166:                                              ; preds = %38
  store i32 0, ptr %6, align 4, !tbaa !11
  br label %167

167:                                              ; preds = %204, %166
  %168 = load i32, ptr %6, align 4, !tbaa !11
  %169 = load ptr, ptr %3, align 8, !tbaa !37
  %170 = getelementptr inbounds nuw %struct.FillBordersContext, ptr %169, i32 0, i32 8
  %171 = load i32, ptr %5, align 4, !tbaa !11
  %172 = sext i32 %171 to i64
  %173 = getelementptr inbounds [4 x %struct.Borders], ptr %170, i64 0, i64 %172
  %174 = getelementptr inbounds nuw %struct.Borders, ptr %173, i32 0, i32 2
  %175 = load i32, ptr %174, align 4, !tbaa !63
  %176 = icmp slt i32 %168, %175
  br i1 %176, label %177, label %207

177:                                              ; preds = %167
  %178 = load ptr, ptr %8, align 8, !tbaa !75
  %179 = load i32, ptr %6, align 4, !tbaa !11
  %180 = sext i32 %179 to i64
  %181 = load i64, ptr %9, align 8, !tbaa !70
  %182 = mul nsw i64 %180, %181
  %183 = getelementptr inbounds i16, ptr %178, i64 %182
  %184 = load ptr, ptr %8, align 8, !tbaa !75
  %185 = load ptr, ptr %3, align 8, !tbaa !37
  %186 = getelementptr inbounds nuw %struct.FillBordersContext, ptr %185, i32 0, i32 8
  %187 = load i32, ptr %5, align 4, !tbaa !11
  %188 = sext i32 %187 to i64
  %189 = getelementptr inbounds [4 x %struct.Borders], ptr %186, i64 0, i64 %188
  %190 = getelementptr inbounds nuw %struct.Borders, ptr %189, i32 0, i32 2
  %191 = load i32, ptr %190, align 4, !tbaa !63
  %192 = sext i32 %191 to i64
  %193 = load i64, ptr %9, align 8, !tbaa !70
  %194 = mul nsw i64 %192, %193
  %195 = getelementptr inbounds i16, ptr %184, i64 %194
  %196 = load ptr, ptr %3, align 8, !tbaa !37
  %197 = getelementptr inbounds nuw %struct.FillBordersContext, ptr %196, i32 0, i32 9
  %198 = load i32, ptr %5, align 4, !tbaa !11
  %199 = sext i32 %198 to i64
  %200 = getelementptr inbounds [4 x i32], ptr %197, i64 0, i64 %199
  %201 = load i32, ptr %200, align 4, !tbaa !11
  %202 = mul nsw i32 %201, 2
  %203 = sext i32 %202 to i64
  call void @llvm.memcpy.p0.p0.i64(ptr align 2 %183, ptr align 2 %195, i64 %203, i1 false)
  br label %204

204:                                              ; preds = %177
  %205 = load i32, ptr %6, align 4, !tbaa !11
  %206 = add nsw i32 %205, 1
  store i32 %206, ptr %6, align 4, !tbaa !11
  br label %167, !llvm.loop !82

207:                                              ; preds = %167
  %208 = load ptr, ptr %3, align 8, !tbaa !37
  %209 = getelementptr inbounds nuw %struct.FillBordersContext, ptr %208, i32 0, i32 10
  %210 = load i32, ptr %5, align 4, !tbaa !11
  %211 = sext i32 %210 to i64
  %212 = getelementptr inbounds [4 x i32], ptr %209, i64 0, i64 %211
  %213 = load i32, ptr %212, align 4, !tbaa !11
  %214 = load ptr, ptr %3, align 8, !tbaa !37
  %215 = getelementptr inbounds nuw %struct.FillBordersContext, ptr %214, i32 0, i32 8
  %216 = load i32, ptr %5, align 4, !tbaa !11
  %217 = sext i32 %216 to i64
  %218 = getelementptr inbounds [4 x %struct.Borders], ptr %215, i64 0, i64 %217
  %219 = getelementptr inbounds nuw %struct.Borders, ptr %218, i32 0, i32 3
  %220 = load i32, ptr %219, align 4, !tbaa !64
  %221 = sub nsw i32 %213, %220
  store i32 %221, ptr %6, align 4, !tbaa !11
  br label %222

222:                                              ; preds = %266, %207
  %223 = load i32, ptr %6, align 4, !tbaa !11
  %224 = load ptr, ptr %3, align 8, !tbaa !37
  %225 = getelementptr inbounds nuw %struct.FillBordersContext, ptr %224, i32 0, i32 10
  %226 = load i32, ptr %5, align 4, !tbaa !11
  %227 = sext i32 %226 to i64
  %228 = getelementptr inbounds [4 x i32], ptr %225, i64 0, i64 %227
  %229 = load i32, ptr %228, align 4, !tbaa !11
  %230 = icmp slt i32 %223, %229
  br i1 %230, label %231, label %269

231:                                              ; preds = %222
  %232 = load ptr, ptr %8, align 8, !tbaa !75
  %233 = load i32, ptr %6, align 4, !tbaa !11
  %234 = sext i32 %233 to i64
  %235 = load i64, ptr %9, align 8, !tbaa !70
  %236 = mul nsw i64 %234, %235
  %237 = getelementptr inbounds i16, ptr %232, i64 %236
  %238 = load ptr, ptr %8, align 8, !tbaa !75
  %239 = load ptr, ptr %3, align 8, !tbaa !37
  %240 = getelementptr inbounds nuw %struct.FillBordersContext, ptr %239, i32 0, i32 10
  %241 = load i32, ptr %5, align 4, !tbaa !11
  %242 = sext i32 %241 to i64
  %243 = getelementptr inbounds [4 x i32], ptr %240, i64 0, i64 %242
  %244 = load i32, ptr %243, align 4, !tbaa !11
  %245 = load ptr, ptr %3, align 8, !tbaa !37
  %246 = getelementptr inbounds nuw %struct.FillBordersContext, ptr %245, i32 0, i32 8
  %247 = load i32, ptr %5, align 4, !tbaa !11
  %248 = sext i32 %247 to i64
  %249 = getelementptr inbounds [4 x %struct.Borders], ptr %246, i64 0, i64 %248
  %250 = getelementptr inbounds nuw %struct.Borders, ptr %249, i32 0, i32 3
  %251 = load i32, ptr %250, align 4, !tbaa !64
  %252 = sub nsw i32 %244, %251
  %253 = sub nsw i32 %252, 1
  %254 = sext i32 %253 to i64
  %255 = load i64, ptr %9, align 8, !tbaa !70
  %256 = mul nsw i64 %254, %255
  %257 = getelementptr inbounds i16, ptr %238, i64 %256
  %258 = load ptr, ptr %3, align 8, !tbaa !37
  %259 = getelementptr inbounds nuw %struct.FillBordersContext, ptr %258, i32 0, i32 9
  %260 = load i32, ptr %5, align 4, !tbaa !11
  %261 = sext i32 %260 to i64
  %262 = getelementptr inbounds [4 x i32], ptr %259, i64 0, i64 %261
  %263 = load i32, ptr %262, align 4, !tbaa !11
  %264 = mul nsw i32 %263, 2
  %265 = sext i32 %264 to i64
  call void @llvm.memcpy.p0.p0.i64(ptr align 2 %237, ptr align 2 %257, i64 %265, i1 false)
  br label %266

266:                                              ; preds = %231
  %267 = load i32, ptr %6, align 4, !tbaa !11
  %268 = add nsw i32 %267, 1
  store i32 %268, ptr %6, align 4, !tbaa !11
  br label %222, !llvm.loop !83

269:                                              ; preds = %222
  call void @llvm.lifetime.end.p0(i64 8, ptr %9) #8
  call void @llvm.lifetime.end.p0(i64 8, ptr %8) #8
  br label %270

270:                                              ; preds = %269
  %271 = load i32, ptr %5, align 4, !tbaa !11
  %272 = add nsw i32 %271, 1
  store i32 %272, ptr %5, align 4, !tbaa !11
  br label %10, !llvm.loop !84

273:                                              ; preds = %10
  call void @llvm.lifetime.end.p0(i64 4, ptr %7) #8
  call void @llvm.lifetime.end.p0(i64 4, ptr %6) #8
  call void @llvm.lifetime.end.p0(i64 4, ptr %5) #8
  ret void
}