; Function Attrs: nofree norecurse nosync nounwind memory(readwrite, inaccessiblemem: none) uwtable
define internal void @smear_borders16(ptr noundef readonly captures(none) %0, ptr noundef readonly captures(none) %1) #3 {
  %3 = getelementptr inbounds nuw i8, ptr %0, i64 28
  %4 = load i32, ptr %3, align 4, !tbaa !39
  %5 = icmp sgt i32 %4, 0
  br i1 %5, label %.lr.ph110, label %._crit_edge111

.lr.ph110:                                        ; preds = %2
  %6 = getelementptr inbounds nuw i8, ptr %1, i64 64
  %7 = getelementptr inbounds nuw i8, ptr %0, i64 36
  %8 = getelementptr inbounds nuw i8, ptr %0, i64 116
  %9 = getelementptr inbounds nuw i8, ptr %0, i64 100
  br label %10

10:                                               ; preds = %.lr.ph110, %._crit_edge107
  %indvars.iv137 = phi i64 [ 0, %.lr.ph110 ], [ %indvars.iv.next138, %._crit_edge107 ]
  %11 = getelementptr inbounds nuw [8 x ptr], ptr %1, i64 0, i64 %indvars.iv137
  %12 = load ptr, ptr %11, align 8, !tbaa !62
  %13 = getelementptr inbounds nuw [8 x i32], ptr %6, i64 0, i64 %indvars.iv137
  %14 = load i32, ptr %13, align 4, !tbaa !45
  %15 = sdiv i32 %14, 2
  %16 = sext i32 %15 to i64
  %17 = getelementptr inbounds nuw [4 x %struct.Borders], ptr %7, i64 0, i64 %indvars.iv137
  %18 = getelementptr inbounds nuw i8, ptr %17, i64 8
  %19 = load i32, ptr %18, align 4, !tbaa !55
  %20 = getelementptr inbounds nuw [4 x i32], ptr %8, i64 0, i64 %indvars.iv137
  %21 = load i32, ptr %20, align 4, !tbaa !45
  %22 = getelementptr inbounds nuw i8, ptr %17, i64 12
  %23 = load i32, ptr %22, align 4, !tbaa !56
  %24 = sub nsw i32 %21, %23
  %25 = icmp slt i32 %19, %24
  br i1 %25, label %.preheader85.lr.ph, label %.preheader86

.preheader85.lr.ph:                               ; preds = %10
  %26 = load i32, ptr %17, align 4, !tbaa !52
  %27 = icmp sgt i32 %26, 0
  %28 = sext i32 %26 to i64
  %29 = getelementptr inbounds nuw i8, ptr %17, i64 4
  %30 = load i32, ptr %29, align 4, !tbaa !54
  %31 = icmp sgt i32 %30, 0
  br i1 %31, label %.preheader85.lr.ph.split.us, label %.preheader85.lr.ph.split

.preheader85.lr.ph.split.us:                      ; preds = %.preheader85.lr.ph
  %32 = zext nneg i32 %30 to i64
  %33 = sub nsw i64 0, %32
  %34 = getelementptr inbounds nuw [4 x i32], ptr %9, i64 0, i64 %indvars.iv137
  %35 = load i32, ptr %34, align 4, !tbaa !45
  %36 = sext i32 %35 to i64
  %invariant.gep = getelementptr i16, ptr %12, i64 %36
  %invariant.gep100 = getelementptr i16, ptr %invariant.gep, i64 %33
  %invariant.gep102 = getelementptr i8, ptr %invariant.gep100, i64 -2
  %invariant.op = sub nsw i64 %36, %32
  %37 = sext i32 %19 to i64
  %38 = sext i32 %24 to i64
  %wide.trip.count121 = zext nneg i32 %26 to i64
  %invariant.gep145 = getelementptr i16, ptr %12, i64 %invariant.op
  %wide.trip.count126 = zext nneg i32 %30 to i64
  br label %.preheader85.us

.preheader85.us:                                  ; preds = %._crit_edge.us, %.preheader85.lr.ph.split.us
  %indvars.iv128 = phi i64 [ %indvars.iv.next129, %._crit_edge.us ], [ %37, %.preheader85.lr.ph.split.us ]
  %39 = mul nsw i64 %indvars.iv128, %16
  br i1 %27, label %.lr.ph.us, label %.preheader.us

40:                                               ; preds = %.preheader.us, %40
  %indvars.iv123 = phi i64 [ 0, %.preheader.us ], [ %indvars.iv.next124, %40 ]
  %41 = getelementptr i16, ptr %gep146, i64 %indvars.iv123
  store i16 %.pre141, ptr %41, align 2, !tbaa !67
  %indvars.iv.next124 = add nuw nsw i64 %indvars.iv123, 1
  %exitcond127.not = icmp eq i64 %indvars.iv.next124, %wide.trip.count126
  br i1 %exitcond127.not, label %._crit_edge.us, label %40, !llvm.loop !69

42:                                               ; preds = %.lr.ph.us, %42
  %indvars.iv118 = phi i64 [ 0, %.lr.ph.us ], [ %indvars.iv.next119, %42 ]
  %43 = getelementptr i16, ptr %44, i64 %indvars.iv118
  store i16 %.pre140, ptr %43, align 2, !tbaa !67
  %indvars.iv.next119 = add nuw nsw i64 %indvars.iv118, 1
  %exitcond122.not = icmp eq i64 %indvars.iv.next119, %wide.trip.count121
  br i1 %exitcond122.not, label %.preheader.us, label %42, !llvm.loop !70

.preheader.us:                                    ; preds = %42, %.preheader85.us
  %gep = getelementptr i16, ptr %invariant.gep102, i64 %39
  %gep146 = getelementptr i16, ptr %invariant.gep145, i64 %39
  %.pre141 = load i16, ptr %gep, align 2, !tbaa !67
  br label %40

.lr.ph.us:                                        ; preds = %.preheader85.us
  %44 = getelementptr inbounds i16, ptr %12, i64 %39
  %45 = getelementptr inbounds nuw i16, ptr %44, i64 %28
  %.pre140 = load i16, ptr %45, align 2, !tbaa !67
  br label %42

._crit_edge.us:                                   ; preds = %40
  %indvars.iv.next129 = add nsw i64 %indvars.iv128, 1
  %46 = icmp slt i64 %indvars.iv.next129, %38
  br i1 %46, label %.preheader85.us, label %.preheader86, !llvm.loop !71

.preheader85.lr.ph.split:                         ; preds = %.preheader85.lr.ph
  br i1 %27, label %.preheader85.us92.preheader, label %.preheader86

.preheader85.us92.preheader:                      ; preds = %.preheader85.lr.ph.split
  %47 = sext i32 %19 to i64
  %48 = sext i32 %24 to i64
  %wide.trip.count = zext nneg i32 %26 to i64
  br label %.preheader85.us92

.preheader85.us92:                                ; preds = %.preheader85.us92.preheader, %..preheader_crit_edge.us97
  %indvars.iv115 = phi i64 [ %47, %.preheader85.us92.preheader ], [ %indvars.iv.next116, %..preheader_crit_edge.us97 ]
  %49 = mul nsw i64 %indvars.iv115, %16
  %50 = getelementptr inbounds i16, ptr %12, i64 %49
  %51 = getelementptr inbounds nuw i16, ptr %50, i64 %28
  %.pre = load i16, ptr %51, align 2, !tbaa !67
  br label %52

52:                                               ; preds = %.preheader85.us92, %52
  %indvars.iv = phi i64 [ 0, %.preheader85.us92 ], [ %indvars.iv.next, %52 ]
  %53 = getelementptr i16, ptr %50, i64 %indvars.iv
  store i16 %.pre, ptr %53, align 2, !tbaa !67
  %indvars.iv.next = add nuw nsw i64 %indvars.iv, 1
  %exitcond.not = icmp eq i64 %indvars.iv.next, %wide.trip.count
  br i1 %exitcond.not, label %..preheader_crit_edge.us97, label %52, !llvm.loop !70

..preheader_crit_edge.us97:                       ; preds = %52
  %indvars.iv.next116 = add nsw i64 %indvars.iv115, 1
  %54 = icmp slt i64 %indvars.iv.next116, %48
  br i1 %54, label %.preheader85.us92, label %.preheader86, !llvm.loop !71

.preheader86:                                     ; preds = %..preheader_crit_edge.us97, %._crit_edge.us, %.preheader85.lr.ph.split, %10
  %55 = icmp sgt i32 %19, 0
  br i1 %55, label %.lr.ph, label %._crit_edge

.lr.ph:                                           ; preds = %.preheader86
  %56 = getelementptr inbounds nuw [4 x i32], ptr %9, i64 0, i64 %indvars.iv137
  br label %57

57:                                               ; preds = %.lr.ph, %57
  %indvars.iv131 = phi i64 [ 0, %.lr.ph ], [ %indvars.iv.next132, %57 ]
  %58 = phi i32 [ %19, %.lr.ph ], [ %67, %57 ]
  %59 = mul nsw i64 %indvars.iv131, %16
  %60 = getelementptr inbounds i16, ptr %12, i64 %59
  %61 = sext i32 %58 to i64
  %62 = mul nsw i64 %61, %16
  %63 = getelementptr inbounds i16, ptr %12, i64 %62
  %64 = load i32, ptr %56, align 4, !tbaa !45
  %65 = shl nsw i32 %64, 1
  %66 = sext i32 %65 to i64
  tail call void @llvm.memcpy.p0.p0.i64(ptr align 2 %60, ptr align 2 %63, i64 %66, i1 false)
  %indvars.iv.next132 = add nuw nsw i64 %indvars.iv131, 1
  %67 = load i32, ptr %18, align 4, !tbaa !55
  %68 = sext i32 %67 to i64
  %69 = icmp slt i64 %indvars.iv.next132, %68
  br i1 %69, label %57, label %._crit_edge.loopexit, !llvm.loop !72

._crit_edge.loopexit:                             ; preds = %57
  %.pre142 = load i32, ptr %22, align 4, !tbaa !56
  br label %._crit_edge

._crit_edge:                                      ; preds = %._crit_edge.loopexit, %.preheader86
  %70 = phi i32 [ %.pre142, %._crit_edge.loopexit ], [ %23, %.preheader86 ]
  %71 = icmp sgt i32 %70, 0
  br i1 %71, label %.lr.ph106, label %._crit_edge107

.lr.ph106:                                        ; preds = %._crit_edge
  %72 = load i32, ptr %20, align 4, !tbaa !45
  %73 = sub i32 %72, %70
  %74 = getelementptr inbounds nuw [4 x i32], ptr %9, i64 0, i64 %indvars.iv137
  %75 = sext i32 %73 to i64
  br label %76

76:                                               ; preds = %.lr.ph106, %76
  %indvars.iv134 = phi i64 [ %75, %.lr.ph106 ], [ %indvars.iv.next135, %76 ]
  %77 = phi i32 [ %72, %.lr.ph106 ], [ %89, %76 ]
  %78 = mul nsw i64 %indvars.iv134, %16
  %79 = getelementptr inbounds i16, ptr %12, i64 %78
  %80 = load i32, ptr %22, align 4, !tbaa !56
  %81 = xor i32 %80, -1
  %82 = add i32 %77, %81
  %83 = sext i32 %82 to i64
  %84 = mul nsw i64 %83, %16
  %85 = getelementptr inbounds i16, ptr %12, i64 %84
  %86 = load i32, ptr %74, align 4, !tbaa !45
  %87 = shl nsw i32 %86, 1
  %88 = sext i32 %87 to i64
  tail call void @llvm.memcpy.p0.p0.i64(ptr align 2 %79, ptr align 2 %85, i64 %88, i1 false)
  %indvars.iv.next135 = add nsw i64 %indvars.iv134, 1
  %89 = load i32, ptr %20, align 4, !tbaa !45
  %90 = sext i32 %89 to i64
  %91 = icmp slt i64 %indvars.iv.next135, %90
  br i1 %91, label %76, label %._crit_edge107, !llvm.loop !73

._crit_edge107:                                   ; preds = %76, %._crit_edge
  %indvars.iv.next138 = add nuw nsw i64 %indvars.iv137, 1
  %92 = load i32, ptr %3, align 4, !tbaa !39
  %93 = sext i32 %92 to i64
  %94 = icmp slt i64 %indvars.iv.next138, %93
  br i1 %94, label %10, label %._crit_edge111, !llvm.loop !74

._crit_edge111:                                   ; preds = %._crit_edge107, %2
  ret void
}